; Function Attrs: mustprogress nounwind uwtable
define internal fastcc noundef ptr @_ZL9as_symbolP8_jstring(ptr noundef %0) unnamed_addr #0 {
  %2 = alloca i32, align 4
  %3 = icmp eq ptr %0, null
  br i1 %3, label %20, label %4

4:                                                ; preds = %1
  %5 = ptrtoint ptr %0 to i64
  %6 = and i64 %5, 3
  switch i64 %6, label %15 [
    i64 1, label %7
    i64 2, label %11
  ]

7:                                                ; preds = %4
  %8 = getelementptr inbounds i8, ptr %0, i64 -1
  %9 = load ptr, ptr @_ZN14AccessInternal15RuntimeDispatchILm598084EP7oopDescLNS_11BarrierTypeE2EE10_load_funcE, align 8
  %10 = tail call noundef ptr %9(ptr noundef nonnull %8) #13
  br label %_ZN10JNIHandles16resolve_non_nullEP8_jobject.exit

11:                                               ; preds = %4
  %12 = getelementptr inbounds i8, ptr %0, i64 -2
  %13 = load ptr, ptr @_ZN14AccessInternal15RuntimeDispatchILm548932EP7oopDescLNS_11BarrierTypeE2EE10_load_funcE, align 8
  %14 = tail call noundef ptr %13(ptr noundef nonnull %12) #13
  br label %_ZN10JNIHandles16resolve_non_nullEP8_jobject.exit

15:                                               ; preds = %4
  %16 = load ptr, ptr %0, align 8
  br label %_ZN10JNIHandles16resolve_non_nullEP8_jobject.exit

_ZN10JNIHandles16resolve_non_nullEP8_jobject.exit: ; preds = %7, %11, %15
  %.0.i.i = phi ptr [ %10, %7 ], [ %14, %11 ], [ %16, %15 ]
  %17 = call noundef ptr @_ZN16java_lang_String14as_utf8_stringEP7oopDescRi(ptr noundef %.0.i.i, ptr noundef nonnull align 4 dereferenceable(4) %2) #13
  %18 = load i32, ptr %2, align 4
  %19 = call noundef ptr @_ZN11SymbolTable10new_symbolEPKci(ptr noundef %17, i32 noundef %18) #13
  br label %20

20:                                               ; preds = %1, %_ZN10JNIHandles16resolve_non_nullEP8_jobject.exit
  %.0 = phi ptr [ %19, %_ZN10JNIHandles16resolve_non_nullEP8_jobject.exit ], [ null, %1 ]
  ret ptr %.0
}